target datalayout = "e-m:e-p270:32:32-p271:32:32-p272:64:64-i64:64-i128:128-f80:128-n8:16:32:64-S128"
target triple = "x86_64-pc-linux-gnu"

@_ZN6icu_7714TimeZoneFormatC1ERKNS_6LocaleER10UErrorCode = unnamed_addr alias void (ptr, ptr, ptr), ptr @_ZN6icu_7714TimeZoneFormatC2ERKNS_6LocaleER10UErrorCode

; Function Attrs: inlinehint mustprogress nounwind uwtable
define internal noundef signext i8 @_ZL9U_SUCCESS10UErrorCode(i32 noundef %0) #2 {
  %2 = alloca i32, align 4
  store i32 %0, ptr %2, align 4, !tbaa !15
  %3 = load i32, ptr %2, align 4, !tbaa !15
  %4 = icmp sle i32 %3, 0
  %5 = zext i1 %4 to i8
  ret i8 %5
}

; Function Attrs: mustprogress uwtable
define noundef ptr @_ZN6icu_7714TimeZoneFormat14createInstanceERKNS_6LocaleER10UErrorCode(ptr noundef nonnull align 8 dereferenceable(217) %0, ptr noundef nonnull align 4 dereferenceable(4) %1) #1 align 2 personality ptr @__gxx_personality_v0 {
  %3 = alloca ptr, align 8
  %4 = alloca ptr, align 8
  %5 = alloca ptr, align 8
  %6 = alloca ptr, align 8
  %7 = alloca i1, align 1
  %8 = alloca ptr, align 8
  %9 = alloca i32, align 4
  %10 = alloca i32, align 4
  store ptr %0, ptr %4, align 8, !tbaa !41
  store ptr %1, ptr %5, align 8, !tbaa !22
  call void @llvm.lifetime.start.p0(i64 8, ptr %6) #15
  %11 = call noundef ptr @_ZN6icu_777UMemorynwEm(i64 noundef 1024) #15
  %12 = icmp eq ptr %11, null
  store i1 false, ptr %7, align 1
  br i1 %12, label %17, label %13

13:                                               ; preds = %2
  store i1 true, ptr %7, align 1
  %14 = load ptr, ptr %4, align 8, !tbaa !41
  %15 = load ptr, ptr %5, align 8, !tbaa !22
  invoke void @_ZN6icu_7714TimeZoneFormatC1ERKNS_6LocaleER10UErrorCode(ptr noundef nonnull align 8 dereferenceable(1024) %11, ptr noundef nonnull align 8 dereferenceable(217) %14, ptr noundef nonnull align 4 dereferenceable(4) %15)
          to label %16 unwind label %25

16:                                               ; preds = %13
  br label %17

17:                                               ; preds = %16, %2
  %18 = phi ptr [ %11, %16 ], [ null, %2 ]
  store ptr %18, ptr %6, align 8, !tbaa !39
  %19 = load ptr, ptr %5, align 8, !tbaa !22
  %20 = load i32, ptr %19, align 4, !tbaa !15
  %21 = call noundef signext i8 @_ZL9U_SUCCESS10UErrorCode(i32 noundef %20)
  %22 = icmp ne i8 %21, 0
  br i1 %22, label %23, label %32

23:                                               ; preds = %17
  %24 = load ptr, ptr %6, align 8, !tbaa !39
  store ptr %24, ptr %3, align 8
  store i32 1, ptr %10, align 4
  br label %40

25:                                               ; preds = %13
  %26 = landingpad { ptr, i32 }
          cleanup
  %27 = extractvalue { ptr, i32 } %26, 0
  store ptr %27, ptr %8, align 8
  %28 = extractvalue { ptr, i32 } %26, 1
  store i32 %28, ptr %9, align 4
  %29 = load i1, ptr %7, align 1
  br i1 %29, label %30, label %31

30:                                               ; preds = %25
  call void @_ZN6icu_777UMemorydlEPv(ptr noundef %11) #15
  br label %31

31:                                               ; preds = %30, %25
  call void @llvm.lifetime.end.p0(i64 8, ptr %6) #15
  br label %42

32:                                               ; preds = %17
  %33 = load ptr, ptr %6, align 8, !tbaa !39
  %34 = icmp eq ptr %33, null
  br i1 %34, label %39, label %35

35:                                               ; preds = %32
  %36 = load ptr, ptr %33, align 8, !tbaa !25
  %37 = getelementptr inbounds ptr, ptr %36, i64 1
  %38 = load ptr, ptr %37, align 8
  call void %38(ptr noundef nonnull align 8 dereferenceable(1024) %33) #15
  br label %39

39:                                               ; preds = %35, %32
  store ptr null, ptr %3, align 8
  store i32 1, ptr %10, align 4
  br label %40

40:                                               ; preds = %39, %23
  call void @llvm.lifetime.end.p0(i64 8, ptr %6) #15
  %41 = load ptr, ptr %3, align 8
  ret ptr %41

42:                                               ; preds = %31
  %43 = load ptr, ptr %8, align 8
  %44 = load i32, ptr %9, align 4
  %45 = insertvalue { ptr, i32 } poison, ptr %43, 0
  %46 = insertvalue { ptr, i32 } %45, i32 %44, 1
  resume { ptr, i32 } %46
}