; Function Attrs: mustprogress uwtable
define noundef ptr @_ZN6icu_7714TimeZoneFormat14createInstanceERKNS_6LocaleER10UErrorCode(ptr noundef nonnull align 8 dereferenceable(217) %0, ptr noundef nonnull align 4 dereferenceable(4) %1) local_unnamed_addr #1 align 2 personality ptr @__gxx_personality_v0 {
  %3 = tail call noundef ptr @_ZN6icu_777UMemorynwEm(i64 noundef 1024) #22
  %4 = icmp eq ptr %3, null
  br i1 %4, label %.thread11, label %5

5:                                                ; preds = %2
  invoke void @_ZN6icu_7714TimeZoneFormatC1ERKNS_6LocaleER10UErrorCode(ptr noundef nonnull align 8 dereferenceable(1024) %3, ptr noundef nonnull align 8 dereferenceable(217) %0, ptr noundef nonnull align 4 dereferenceable(4) %1)
          to label %6 unwind label %9

6:                                                ; preds = %5
  %7 = load i32, ptr %1, align 4, !tbaa !13
  %8 = icmp sgt i32 %7, 0
  br i1 %8, label %11, label %.thread11

9:                                                ; preds = %5
  %10 = landingpad { ptr, i32 }
          cleanup
  tail call void @_ZN6icu_777UMemorydlEPv(ptr noundef nonnull %3) #22
  resume { ptr, i32 } %10

11:                                               ; preds = %6
  %12 = load ptr, ptr %3, align 8, !tbaa !15
  %13 = getelementptr inbounds nuw i8, ptr %12, i64 8
  %14 = load ptr, ptr %13, align 8
  tail call void %14(ptr noundef nonnull align 8 dereferenceable(1024) %3) #22
  br label %.thread11

.thread11:                                        ; preds = %2, %11, %6
  %.0 = phi ptr [ %3, %6 ], [ null, %11 ], [ null, %2 ]
  ret ptr %.0
}